(lp0
(lp1
S'./Data/artificial-models/fifty_interaction_apache.csv'
p2
a(lp3
cnumpy.core.multiarray
scalar
p4
(cnumpy
dtype
p5
(S'f8'
p6
I0
I1
tp7
Rp8
(I3
S'<'
p9
NNNI-1
I-1
I0
tp10
bS'\xa6\x9b\xc4 \xb0\xf2\x19@'
p11
tp12
Rp13
ag4
(g8
S'6\x8fw\xa8\xb9\x8a\xe0?'
p14
tp15
Rp16
aaI192
aa(lp17
S'./Data/artificial-models/fifty_interaction_bdbc.csv'
p18
a(lp19
g4
(g8
S'\xf6(\\\x8f\xc2\xd58@'
p20
tp21
Rp22
ag4
(g8
S'_\xf6%\xb2\xbeS\x19@'
p23
tp24
Rp25
aaI2560
aa(lp26
S'./Data/artificial-models/fifty_interaction_bdbj.csv'
p27
a(lp28
g4
(g8
S'\x8bl\xe7\xfb\xa9\xf1\r@'
p29
tp30
Rp31
ag4
(g8
S'\x93\xde\x93g1\xd4\xfc?'
p32
tp33
Rp34
aaI180
aa(lp35
S'./Data/artificial-models/fifty_interaction_llvm.csv'
p36
a(lp37
g4
(g8
S'\xf8S\xe3\xa5\x9b\xc4)@'
p38
tp39
Rp40
ag4
(g8
S'\xe2(:\xfeC\xb3\xe3?'
p41
tp42
Rp43
aaI1024
aa(lp44
S'./Data/artificial-models/fifty_interaction_sqlite.csv'
p45
a(lp46
g4
(g8
S'\xcd\xcc\xcc\xcc\xcc\xec0@'
p47
tp48
Rp49
ag4
(g8
S'\x05\xca,\xc50\x1c\x1c@'
p50
tp51
Rp52
aaI4653
aa(lp53
S'./Data/artificial-models/no_interaction_apache.csv'
p54
a(lp55
g4
(g8
S'\x15\xaeG\xe1z\x14\x19@'
p56
tp57
Rp58
ag4
(g8
S'\xa4\x837\xb2\x7f\xab\xdb?'
p59
tp60
Rp61
aaI192
aa(lp62
S'./Data/artificial-models/no_interaction_bdbc.csv'
p63
a(lp64
g4
(g8
S'U\x0e-\xb2\x9do\x12@'
p65
tp66
Rp67
ag4
(g8
S'j\xb0\xcc\xd5m\n\xcb?'
p68
tp69
Rp70
aaI2560
aa(lp71
S'./Data/artificial-models/no_interaction_bdbj.csv'
p72
a(lp73
g4
(g8
S'\xaa\x1cZd;\xdf\xed?'
p74
tp75
Rp76
ag4
(g8
S'\x0e6\xe8\xa0 8\xc6?'
p77
tp78
Rp79
aaI180
aa(lp80
S'./Data/artificial-models/no_interaction_llvm.csv'
p81
a(lp82
g4
(g8
S'@5^\xbaIl*@'
p83
tp84
Rp85
ag4
(g8
S"\x1d\x996\xae'\x82\xe2?"
p86
tp87
Rp88
aaI1024
aa(lp89
S'./Data/artificial-models/no_interaction_sqlite.csv'
p90
a(lp91
g4
(g8
S'\x18\x04V\x0e-2$@'
p92
tp93
Rp94
ag4
(g8
S'>v\xc4U\xe0K\x18@'
p95
tp96
Rp97
aaI4653
aa(lp98
S'./Data/artificial-models/one_hundred_interaction_apache.csv'
p99
a(lp100
g4
(g8
S'\x0c\x02+\x87\x16\xb9 @'
p101
tp102
Rp103
ag4
(g8
S']\xa5\x856\x1bc\xec?'
p104
tp105
Rp106
aaI192
aa(lp107
S'./Data/artificial-models/one_hundred_interaction_bdbc.csv'
p108
a(lp109
g4
(g8
S'fffffV8@'
p110
tp111
Rp112
ag4
(g8
S'\x8em?\x06\x16\xc7\x10@'
p113
tp114
Rp115
aaI2560
aa(lp116
S'./Data/artificial-models/one_hundred_interaction_bdbj.csv'
p117
a(lp118
g4
(g8
S'2\x08\xac\x1cZd\xf0?'
p119
tp120
Rp121
ag4
(g8
S'\xf9EMg\x90\xe8\xc1?'
p122
tp123
Rp124
aaI180
aa(lp125
S'./Data/artificial-models/one_hundred_interaction_llvm.csv'
p126
a(lp127
g4
(g8
S'{\x14\xaeG\xe1\xfa,@'
p128
tp129
Rp130
ag4
(g8
S'\xbf\x9cA\xf2\xb7\xbe\xea?'
p131
tp132
Rp133
aaI1024
aa(lp134
S'./Data/artificial-models/one_hundred_interaction_sqlite.csv'
p135
a(lp136
g4
(g8
S'\x03V\x0e-\xb2\xfd9@'
p137
tp138
Rp139
ag4
(g8
S'\x1a-\xb4\xa8{E.@'
p140
tp141
Rp142
aaI4653
aa(lp143
S'./Data/artificial-models/twentyfive_interaction_apache.csv'
p144
a(lp145
g4
(g8
S'\x1a/\xdd$\x06\x81\xb5?'
p146
tp147
Rp148
ag4
(g8
S'E?\x99\xc6\xcc:\xbe?'
p149
tp150
Rp151
aaI192
aa(lp152
S'./Data/artificial-models/twentyfive_interaction_bdbc.csv'
p153
a(lp154
g4
(g8
S'ffffff\xb6?'
p155
tp156
Rp157
ag4
(g8
S'\x86Q\x1b\x8eFl\xcd?'
p158
tp159
Rp160
aaI2560
aa(lp161
S'./Data/artificial-models/twentyfive_interaction_bdbj.csv'
p162
a(lp163
g4
(g8
S'rh\x91\xed\xfcj\xb0@'
p164
tp165
Rp166
ag4
(g8
S'\x04\x81\xa4\x19C\xdf\xd1@'
p167
tp168
Rp169
aaI180
aa(lp170
S'./Data/artificial-models/twentyfive_interaction_llvm.csv'
p171
a(lp172
g4
(g8
S'\xb6\xf3\xfd\xd4x\t,@'
p173
tp174
Rp175
ag4
(g8
S'\x06\xd5\x8c\xfb\x8f_\xe4?'
p176
tp177
Rp178
aaI1024
aa(lp179
S'./Data/artificial-models/twentyfive_interaction_sqlite.csv'
p180
a(lp181
g4
(g8
S'\x18\x04V\x0e-\xb2,@'
p182
tp183
Rp184
ag4
(g8
S'!\xfa\xefq\xbc\x84\x08@'
p185
tp186
Rp187
aaI4653
aa(lp188
S'./Data/artificial-models/two_hundred_interaction_apache.csv'
p189
a(lp190
g4
(g8
S'n\x12\x83\xc0\xca!\x19@'
p191
tp192
Rp193
ag4
(g8
S'\xaf\xd1\x82\xdeLf\xe2?'
p194
tp195
Rp196
aaI192
aa(lp197
S'./Data/artificial-models/two_hundred_interaction_bdbc.csv'
p198
a(lp199
g4
(g8
S'\xfe\xd4x\xe9\xa6\xe2\x97@'
p200
tp201
Rp202
ag4
(g8
S'\xfcl\xb3Vh\x93\xa1@'
p203
tp204
Rp205
aaI2560
aa(lp206
S'./Data/artificial-models/two_hundred_interaction_bdbj.csv'
p207
a(lp208
g4
(g8
S'}?5^\xba\x89\x1d@'
p209
tp210
Rp211
ag4
(g8
S'\x8c\xeeO\xb2\xc8$\x0f@'
p212
tp213
Rp214
aaI180
aa(lp215
S'./Data/artificial-models/two_hundred_interaction_llvm.csv'
p216
a(lp217
g4
(g8
S'\xf0\xa7\xc6K7\tE@'
p218
tp219
Rp220
ag4
(g8
S'*\xa6\xb6mnZ @'
p221
tp222
Rp223
aaI1024
aa(lp224
S'./Data/artificial-models/two_hundred_interaction_sqlite.csv'
p225
a(lp226
g4
(g8
S'w\xbe\x9f\x1a\xaf\xee\x94@'
p227
tp228
Rp229
ag4
(g8
S'\xf2\xceE\nc\xbe\xa7@'
p230
tp231
Rp232
aaI4653
aa.