(lp0
(lp1
S'./Data/cloud-sim/scenario1_large.csv_o1'
p2
a(lp3
cnumpy.core.multiarray
scalar
p4
(cnumpy
dtype
p5
(S'f8'
p6
I0
I1
tp7
Rp8
(I3
S'<'
p9
NNNI-1
I-1
I0
tp10
bS'k\xe7\xfb\xa9\xf1\xd2\xbd?'
p11
tp12
Rp13
ag4
(g8
S'\x99\x8c\xc3\n\xa5\xa2\x97?'
p14
tp15
Rp16
aaI58871
aa(lp17
S'./Data/cloud-sim/scenario1_large.csv_o2'
p18
a(lp19
g4
(g8
S'\x87\x16\xd9\xce\xf7S\xd3?'
p20
tp21
Rp22
ag4
(g8
S'\x1a\xad\xc5\x96\xd5\xc9\x98?'
p23
tp24
Rp25
aaI58871
aa(lp26
S'./Data/cloud-sim/scenario1_large.csv_o3'
p27
a(lp28
g4
(g8
S'\xf5\xfd\xd4x\xe9&\xb1?'
p29
tp30
Rp31
ag4
(g8
S'\x95m\x12\x93):z?'
p32
tp33
Rp34
aaI58871
aa(lp35
S'./Data/cloud-sim/scenario1_small.csv_o1'
p36
a(lp37
g4
(g8
S'b\xe5\xd0"\xdb\xf9\xae?'
p38
tp39
Rp40
ag4
(g8
S'\xb5W\x86\xae\x19\x03\x8e?'
p41
tp42
Rp43
aaI6545
aa(lp44
S'./Data/cloud-sim/scenario1_small.csv_o2'
p45
a(lp46
g4
(g8
S'.\xb2\x9d\xef\xa7\xc6\xd7?'
p47
tp48
Rp49
ag4
(g8
S'\x97\xd4\xc69Y\x1a\xac?'
p50
tp51
Rp52
aaI6545
aa(lp53
S'./Data/cloud-sim/scenario1_small.csv_o3'
p54
a(lp55
g4
(g8
S'\xa7\xc6K7\x89A\xd8?'
p56
tp57
Rp58
ag4
(g8
S'\x96\xf3\xaf\x04\xd2\x88\xa5?'
p59
tp60
Rp61
aaI6545
aa.