(lp0
(lp1
S'./Data/models/AJStats.csv'
p2
a(lp3
cnumpy.core.multiarray
scalar
p4
(cnumpy
dtype
p5
(S'f8'
p6
I0
I1
tp7
Rp8
(I3
S'<'
p9
NNNI-1
I-1
I0
tp10
bS'\x9d\xc4 \xb0rh\xfc?'
p11
tp12
Rp13
ag4
(g8
S'\xe2\xba\xc5\xbe\x96\x94\x8c?'
p14
tp15
Rp16
aaI30256
aa(lp17
S'./Data/models/BerkeleyC.csv'
p18
a(lp19
g4
(g8
S'\x8f\xc2\xf5(\\\x0f\x01@'
p20
tp21
Rp22
ag4
(g8
S't\x8cw8\r\x95\xcf?'
p23
tp24
Rp25
aaI256
aa(lp26
S'./Data/models/BerkeleyDB.csv'
p27
a(lp28
g4
(g8
S'0\xdd$\x06\x81\x95\xdf?'
p29
tp30
Rp31
ag4
(g8
S'\x80G\x01\x94\xf2\xea\x8a?'
p32
tp33
Rp34
aaI2560
aa(lp35
S'./Data/models/BerkeleyDBJ.csv'
p36
a(lp37
g4
(g8
S' \xb0rh\x91m\x00@'
p38
tp39
Rp40
ag4
(g8
S'\x1b^\xc2\x96\xbdt\xd5?'
p41
tp42
Rp43
aaI180
aa(lp44
S'./Data/models/clasp.csv'
p45
a(lp46
g4
(g8
S'\x06\x81\x95C\x8bl\xeb?'
p47
tp48
Rp49
ag4
(g8
S'\xdb\x12\xedX2\x16\xd3?'
p50
tp51
Rp52
aaI700
aa(lp53
S'./Data/models/EPL.csv'
p54
a(lp55
g4
(g8
S'\x02+\x87\x16\xd9\xce\xf6?'
p56
tp57
Rp58
ag4
(g8
S'\xe2"\x0c\x11\x95v\xf1?'
p59
tp60
Rp61
aaI365
aa(lp62
S'./Data/models/Hipacc.csv'
p63
a(lp64
g4
(g8
S'\xd1"\xdb\xf9~\xea\x02@'
p65
tp66
Rp67
ag4
(g8
S'\x15\xa9\x0e\xechW\xb0?'
p68
tp69
Rp70
aaI13485
aa(lp71
S'./Data/models/LinkedList.csv'
p72
a(lp73
g4
(g8
S'\xd7\xa3p=\n\xd7\xf4?'
p74
tp75
Rp76
ag4
(g8
S'J#\xf1\xa4[\xb5\xe1?'
p77
tp78
Rp79
aaI204
aa(lp80
S'./Data/models/PKJab.csv'
p81
a(lp82
g4
(g8
S'!\xb0rh\x91\xed\xe0?'
p83
tp84
Rp85
ag4
(g8
S'\x11\xfe\xb9 n`\xb3?'
p86
tp87
Rp88
aaI72
aa(lp89
S'./Data/models/ZipMe.csv'
p90
a(lp91
g4
(g8
S'C\x8bl\xe7\xfb\xa9\xed?'
p92
tp93
Rp94
ag4
(g8
S'\xa1\x7fj\xe8Qm\xd3?'
p95
tp96
Rp97
aaI104
aa.